; Function Attrs: mustprogress nofree norecurse nosync nounwind willreturn memory(read, inaccessiblemem: none) uwtable
define hidden noundef zeroext i1 @_ZN17expr_substitution8containsEP4expr(ptr noundef nonnull readonly align 8 captures(none) dereferenceable(49) %0, ptr noundef readonly captures(address) %1) local_unnamed_addr #10 align 2 {
  %3 = getelementptr inbounds nuw i8, ptr %0, i64 8
  %4 = getelementptr inbounds nuw i8, ptr %1, i64 12
  %5 = load i32, ptr %4, align 4, !tbaa !122
  %6 = getelementptr inbounds nuw i8, ptr %0, i64 16
  %7 = load i32, ptr %6, align 8, !tbaa !30
  %8 = add i32 %7, -1
  %9 = and i32 %8, %5
  %10 = load ptr, ptr %3, align 8, !tbaa !27
  %11 = zext i32 %9 to i64
  %12 = getelementptr inbounds nuw %"class.obj_map<expr, expr *>::obj_map_entry", ptr %10, i64 %11
  %13 = zext i32 %7 to i64
  %14 = getelementptr inbounds nuw %"class.obj_map<expr, expr *>::obj_map_entry", ptr %10, i64 %13
  %.not35.i.i.i = icmp eq i32 %9, %7
  br i1 %.not35.i.i.i, label %.preheader.i.i.i, label %.lr.ph.i.i.i

.preheader.i.i.i:                                 ; preds = %21, %2
  %.not2737.i.i.i = icmp eq i32 %9, 0
  br i1 %.not2737.i.i.i, label %_ZNK7obj_mapI4exprPS0_E8containsES1_.exit, label %.lr.ph39.i.i.i

.lr.ph.i.i.i:                                     ; preds = %2, %21
  %.036.i.i.i = phi ptr [ %22, %21 ], [ %12, %2 ]
  %15 = load ptr, ptr %.036.i.i.i, align 8, !tbaa !103
  %magicptr30.i.i.i = ptrtoint ptr %15 to i64
  switch i64 %magicptr30.i.i.i, label %16 [
    i64 0, label %_ZNK7obj_mapI4exprPS0_E8containsES1_.exit
    i64 1, label %21
  ]

16:                                               ; preds = %.lr.ph.i.i.i
  %17 = getelementptr inbounds nuw i8, ptr %15, i64 12
  %18 = load i32, ptr %17, align 4, !tbaa !122
  %19 = icmp eq i32 %18, %5
  %20 = icmp eq ptr %15, %1
  %or.cond.i.i.i = and i1 %20, %19
  br i1 %or.cond.i.i.i, label %_ZNK7obj_mapI4exprPS0_E8containsES1_.exit, label %21

21:                                               ; preds = %16, %.lr.ph.i.i.i
  %22 = getelementptr inbounds nuw i8, ptr %.036.i.i.i, i64 16
  %.not.i.i.i = icmp eq ptr %22, %14
  br i1 %.not.i.i.i, label %.preheader.i.i.i, label %.lr.ph.i.i.i, !llvm.loop !131

.lr.ph39.i.i.i:                                   ; preds = %.preheader.i.i.i, %29
  %.138.i.i.i = phi ptr [ %30, %29 ], [ %10, %.preheader.i.i.i ]
  %23 = load ptr, ptr %.138.i.i.i, align 8, !tbaa !103
  %magicptr32.i.i.i = ptrtoint ptr %23 to i64
  switch i64 %magicptr32.i.i.i, label %24 [
    i64 0, label %_ZNK7obj_mapI4exprPS0_E8containsES1_.exit
    i64 1, label %29
  ]

24:                                               ; preds = %.lr.ph39.i.i.i
  %25 = getelementptr inbounds nuw i8, ptr %23, i64 12
  %26 = load i32, ptr %25, align 4, !tbaa !122
  %27 = icmp eq i32 %26, %5
  %28 = icmp eq ptr %23, %1
  %or.cond31.i.i.i = and i1 %28, %27
  br i1 %or.cond31.i.i.i, label %_ZNK7obj_mapI4exprPS0_E8containsES1_.exit, label %29

29:                                               ; preds = %24, %.lr.ph39.i.i.i
  %30 = getelementptr inbounds nuw i8, ptr %.138.i.i.i, i64 16
  %.not27.i.i.i = icmp eq ptr %30, %12
  br i1 %.not27.i.i.i, label %_ZNK7obj_mapI4exprPS0_E8containsES1_.exit, label %.lr.ph39.i.i.i, !llvm.loop !132

_ZNK7obj_mapI4exprPS0_E8containsES1_.exit:        ; preds = %.lr.ph.i.i.i, %16, %.lr.ph39.i.i.i, %24, %29, %.preheader.i.i.i
  %.026.i.i.i = phi i1 [ false, %.preheader.i.i.i ], [ false, %.lr.ph39.i.i.i ], [ true, %24 ], [ false, %29 ], [ true, %16 ], [ false, %.lr.ph.i.i.i ]
  ret i1 %.026.i.i.i
}